target datalayout = "e-m:e-p270:32:32-p271:32:32-p272:64:64-i64:64-i128:128-f80:128-n8:16:32:64-S128"
target triple = "x86_64-pc-linux-gnu"

%struct._object = type { %union.anon, ptr }
%union.anon = type { i64 }
%struct.anon = type { i32, i32 }

@PyExc_RuntimeError = external global ptr, align 8
@_Py_NoneStruct = external global %struct._object, align 8
@S_log_open = internal global i8 0, align 1
@S_ident_o = internal global ptr null, align 8
@.str.16 = private unnamed_addr constant [43 x i8] c"subinterpreter can't use syslog.closelog()\00", align 1
@.str.17 = private unnamed_addr constant [16 x i8] c"syslog.closelog\00", align 1

; Function Attrs: alwaysinline nounwind uwtable
define internal i32 @_Py_IsImmortal(ptr noundef %0) #4 {
  %2 = alloca ptr, align 8
  store ptr %0, ptr %2, align 8, !tbaa !3
  %3 = load ptr, ptr %2, align 8, !tbaa !3
  %4 = getelementptr inbounds nuw %struct._object, ptr %3, i32 0, i32 0
  %5 = getelementptr inbounds nuw %struct.anon, ptr %4, i32 0, i32 0
  %6 = load i32, ptr %5, align 8, !tbaa !28
  %7 = icmp slt i32 %6, 0
  %8 = zext i1 %7 to i32
  ret i32 %8
}

; Function Attrs: alwaysinline nounwind uwtable
define internal void @Py_DECREF(ptr noundef %0) #4 {
  %2 = alloca ptr, align 8
  store ptr %0, ptr %2, align 8, !tbaa !3
  %3 = load ptr, ptr %2, align 8, !tbaa !3
  %4 = call i32 @_Py_IsImmortal(ptr noundef %3)
  %5 = icmp ne i32 %4, 0
  br i1 %5, label %6, label %7

6:                                                ; preds = %1
  br label %16

7:                                                ; preds = %1
  %8 = load ptr, ptr %2, align 8, !tbaa !3
  %9 = getelementptr inbounds nuw %struct._object, ptr %8, i32 0, i32 0
  %10 = getelementptr inbounds nuw %struct.anon, ptr %9, i32 0, i32 0
  %11 = load i32, ptr %10, align 8, !tbaa !28
  %12 = add i32 %11, -1
  store i32 %12, ptr %10, align 8, !tbaa !28
  %13 = icmp eq i32 %12, 0
  br i1 %13, label %14, label %16

14:                                               ; preds = %7
  %15 = load ptr, ptr %2, align 8, !tbaa !3
  call void @_Py_Dealloc(ptr noundef %15)
  br label %16

16:                                               ; preds = %6, %14, %7
  ret void
}

; Function Attrs: inlinehint nounwind uwtable
define internal i32 @is_main_interpreter() #3 {
  %1 = call ptr @PyInterpreterState_Get()
  %2 = call ptr @PyInterpreterState_Main()
  %3 = icmp eq ptr %1, %2
  %4 = zext i1 %3 to i32
  ret i32 %4
}

; Function Attrs: nounwind uwtable
define internal ptr @syslog_closelog_impl(ptr noundef %0) #0 {
  %2 = alloca ptr, align 8
  %3 = alloca ptr, align 8
  %4 = alloca ptr, align 8
  %5 = alloca ptr, align 8
  store ptr %0, ptr %3, align 8, !tbaa !3
  %6 = call i32 @is_main_interpreter()
  %7 = icmp ne i32 %6, 0
  br i1 %7, label %10, label %8

8:                                                ; preds = %1
  %9 = load ptr, ptr @PyExc_RuntimeError, align 8, !tbaa !3
  call void @PyErr_SetString(ptr noundef %9, ptr noundef @.str.16)
  store ptr null, ptr %2, align 8
  br label %29

10:                                               ; preds = %1
  %11 = call i32 (ptr, ptr, ...) @PySys_Audit(ptr noundef @.str.17, ptr noundef null)
  %12 = icmp slt i32 %11, 0
  br i1 %12, label %13, label %14

13:                                               ; preds = %10
  store ptr null, ptr %2, align 8
  br label %29

14:                                               ; preds = %10
  %15 = load i8, ptr @S_log_open, align 1, !tbaa !28
  %16 = icmp ne i8 %15, 0
  br i1 %16, label %17, label %28

17:                                               ; preds = %14
  call void @closelog()
  br label %18

18:                                               ; preds = %17
  call void @llvm.lifetime.start.p0(i64 8, ptr %4) #6
  store ptr @S_ident_o, ptr %4, align 8, !tbaa !8
  call void @llvm.lifetime.start.p0(i64 8, ptr %5) #6
  %19 = load ptr, ptr %4, align 8, !tbaa !8
  %20 = load ptr, ptr %19, align 8, !tbaa !3
  store ptr %20, ptr %5, align 8, !tbaa !3
  %21 = load ptr, ptr %5, align 8, !tbaa !3
  %22 = icmp ne ptr %21, null
  br i1 %22, label %23, label %26

23:                                               ; preds = %18
  %24 = load ptr, ptr %4, align 8, !tbaa !8
  store ptr null, ptr %24, align 8, !tbaa !3
  %25 = load ptr, ptr %5, align 8, !tbaa !3
  call void @Py_DECREF(ptr noundef %25)
  br label %26

26:                                               ; preds = %23, %18
  call void @llvm.lifetime.end.p0(i64 8, ptr %5) #6
  call void @llvm.lifetime.end.p0(i64 8, ptr %4) #6
  br label %27

27:                                               ; preds = %26
  store i8 0, ptr @S_log_open, align 1, !tbaa !28
  br label %28

28:                                               ; preds = %27, %14
  store ptr @_Py_NoneStruct, ptr %2, align 8
  br label %29

29:                                               ; preds = %28, %13, %8
  %30 = load ptr, ptr %2, align 8
  ret ptr %30
}

; Function Attrs: nounwind uwtable
define internal ptr @syslog_closelog(ptr noundef %0, ptr noundef %1) #0 {
  %3 = alloca ptr, align 8
  %4 = alloca ptr, align 8
  %5 = alloca ptr, align 8
  store ptr %0, ptr %3, align 8, !tbaa !3
  store ptr %1, ptr %4, align 8, !tbaa !3
  call void @llvm.lifetime.start.p0(i64 8, ptr %5) #6
  store ptr null, ptr %5, align 8, !tbaa !3
  %6 = load ptr, ptr %3, align 8, !tbaa !3
  %7 = call ptr @syslog_closelog_impl(ptr noundef %6)
  store ptr %7, ptr %5, align 8, !tbaa !3
  %8 = load ptr, ptr %5, align 8, !tbaa !3
  call void @llvm.lifetime.end.p0(i64 8, ptr %5) #6
  ret ptr %8
}