; Function Attrs: nounwind uwtable
define internal noundef ptr @syslog_closelog(ptr readnone captures(none) %0, ptr readnone captures(none) %1) #0 {
  %3 = tail call ptr @PyInterpreterState_Get() #5
  %4 = tail call ptr @PyInterpreterState_Main() #5
  %.not.i = icmp eq ptr %3, %4
  br i1 %.not.i, label %7, label %5

5:                                                ; preds = %2
  %6 = load ptr, ptr @PyExc_RuntimeError, align 8, !tbaa !11
  tail call void @PyErr_SetString(ptr noundef %6, ptr noundef nonnull @.str.16) #5
  br label %syslog_closelog_impl.exit

7:                                                ; preds = %2
  %8 = tail call i32 (ptr, ptr, ...) @PySys_Audit(ptr noundef nonnull @.str.17, ptr noundef null) #5
  %9 = icmp slt i32 %8, 0
  br i1 %9, label %syslog_closelog_impl.exit, label %10

10:                                               ; preds = %7
  %.b.i = load i1, ptr @S_log_open, align 1
  br i1 %.b.i, label %11, label %syslog_closelog_impl.exit

11:                                               ; preds = %10
  tail call void @closelog() #5
  %12 = load ptr, ptr @S_ident_o, align 8, !tbaa !11
  %.not6.i = icmp eq ptr %12, null
  br i1 %.not6.i, label %Py_DECREF.exit.i, label %13

13:                                               ; preds = %11
  store ptr null, ptr @S_ident_o, align 8, !tbaa !11
  %14 = load i32, ptr %12, align 8, !tbaa !22
  %.not.i.i = icmp sgt i32 %14, -1
  br i1 %.not.i.i, label %15, label %Py_DECREF.exit.i

15:                                               ; preds = %13
  %16 = add nsw i32 %14, -1
  store i32 %16, ptr %12, align 8, !tbaa !22
  %17 = icmp eq i32 %16, 0
  br i1 %17, label %18, label %Py_DECREF.exit.i

18:                                               ; preds = %15
  tail call void @_Py_Dealloc(ptr noundef nonnull %12) #5
  br label %Py_DECREF.exit.i

Py_DECREF.exit.i:                                 ; preds = %18, %15, %13, %11
  store i1 false, ptr @S_log_open, align 1
  br label %syslog_closelog_impl.exit

syslog_closelog_impl.exit:                        ; preds = %5, %7, %10, %Py_DECREF.exit.i
  %.0.i = phi ptr [ null, %5 ], [ null, %7 ], [ @_Py_NoneStruct, %Py_DECREF.exit.i ], [ @_Py_NoneStruct, %10 ]
  ret ptr %.0.i
}